; Function Attrs: mustprogress nounwind uwtable
define dso_local void @_ZNK5clang19PrettyStackTraceLoc5printERN4llvm11raw_ostreamE(ptr nocapture noundef nonnull readonly align 8 dereferenceable(40) %0, ptr noundef nonnull align 8 dereferenceable(48) %1) unnamed_addr #0 align 2 {
  %3 = getelementptr inbounds nuw i8, ptr %0, i64 24
  %4 = load i32, ptr %3, align 8
  %.not = icmp eq i32 %4, 0
  br i1 %.not, label %_ZN4llvm11raw_ostreamlsEPKc.exit, label %5

5:                                                ; preds = %2
  %6 = getelementptr inbounds nuw i8, ptr %0, i64 16
  %7 = load ptr, ptr %6, align 8
  tail call void @_ZNK5clang14SourceLocation5printERN4llvm11raw_ostreamERKNS_13SourceManagerE(ptr noundef nonnull align 4 dereferenceable(4) %3, ptr noundef nonnull align 8 dereferenceable(48) %1, ptr noundef nonnull align 8 dereferenceable(696) %7)
  %8 = getelementptr inbounds nuw i8, ptr %1, i64 24
  %9 = load ptr, ptr %8, align 8
  %10 = getelementptr inbounds nuw i8, ptr %1, i64 32
  %11 = load ptr, ptr %10, align 8
  %12 = ptrtoint ptr %9 to i64
  %13 = ptrtoint ptr %11 to i64
  %14 = sub i64 %12, %13
  %15 = icmp ult i64 %14, 2
  br i1 %15, label %16, label %18

16:                                               ; preds = %5
  %17 = tail call noundef nonnull align 8 dereferenceable(48) ptr @_ZN4llvm11raw_ostream5writeEPKcm(ptr noundef nonnull align 8 dereferenceable(48) %1, ptr noundef nonnull @.str, i64 noundef 2) #10
  br label %_ZN4llvm11raw_ostreamlsEPKc.exit

18:                                               ; preds = %5
  store i16 8250, ptr %11, align 1
  %19 = load ptr, ptr %10, align 8
  %20 = getelementptr inbounds i8, ptr %19, i64 2
  store ptr %20, ptr %10, align 8
  br label %_ZN4llvm11raw_ostreamlsEPKc.exit

_ZN4llvm11raw_ostreamlsEPKc.exit:                 ; preds = %18, %16, %2
  %21 = getelementptr inbounds nuw i8, ptr %0, i64 32
  %22 = load ptr, ptr %21, align 8
  %.not.i.i = icmp eq ptr %22, null
  br i1 %.not.i.i, label %_ZN4llvm11raw_ostreamlsEPKc.exit6, label %_ZN4llvm9StringRefC2EPKc.exit.i

_ZN4llvm9StringRefC2EPKc.exit.i:                  ; preds = %_ZN4llvm11raw_ostreamlsEPKc.exit
  %23 = tail call noundef i64 @strlen(ptr noundef nonnull dereferenceable(1) %22) #10
  %24 = getelementptr inbounds nuw i8, ptr %1, i64 24
  %25 = load ptr, ptr %24, align 8
  %26 = getelementptr inbounds nuw i8, ptr %1, i64 32
  %27 = load ptr, ptr %26, align 8
  %28 = ptrtoint ptr %25 to i64
  %29 = ptrtoint ptr %27 to i64
  %30 = sub i64 %28, %29
  %31 = icmp ugt i64 %23, %30
  br i1 %31, label %32, label %34

32:                                               ; preds = %_ZN4llvm9StringRefC2EPKc.exit.i
  %33 = tail call noundef nonnull align 8 dereferenceable(48) ptr @_ZN4llvm11raw_ostream5writeEPKcm(ptr noundef nonnull align 8 dereferenceable(48) %1, ptr noundef nonnull %22, i64 noundef %23) #10
  br label %_ZN4llvm11raw_ostreamlsEPKc.exit6

34:                                               ; preds = %_ZN4llvm9StringRefC2EPKc.exit.i
  %.not.i2.i4 = icmp eq i64 %23, 0
  br i1 %.not.i2.i4, label %_ZN4llvm11raw_ostreamlsEPKc.exit6, label %35

35:                                               ; preds = %34
  tail call void @llvm.memcpy.p0.p0.i64(ptr align 1 %27, ptr nonnull align 1 %22, i64 %23, i1 false)
  %36 = load ptr, ptr %26, align 8
  %37 = getelementptr inbounds i8, ptr %36, i64 %23
  store ptr %37, ptr %26, align 8
  br label %_ZN4llvm11raw_ostreamlsEPKc.exit6

_ZN4llvm11raw_ostreamlsEPKc.exit6:                ; preds = %_ZN4llvm11raw_ostreamlsEPKc.exit, %32, %34, %35
  %.0.i.i5 = phi ptr [ %33, %32 ], [ %1, %35 ], [ %1, %34 ], [ %1, %_ZN4llvm11raw_ostreamlsEPKc.exit ]
  %38 = getelementptr inbounds nuw i8, ptr %.0.i.i5, i64 32
  %39 = load ptr, ptr %38, align 8
  %40 = getelementptr inbounds nuw i8, ptr %.0.i.i5, i64 24
  %41 = load ptr, ptr %40, align 8
  %.not.i = icmp ult ptr %39, %41
  br i1 %.not.i, label %44, label %42

42:                                               ; preds = %_ZN4llvm11raw_ostreamlsEPKc.exit6
  %43 = tail call noundef nonnull align 8 dereferenceable(48) ptr @_ZN4llvm11raw_ostream5writeEh(ptr noundef nonnull align 8 dereferenceable(48) %.0.i.i5, i8 noundef zeroext 10) #10
  br label %_ZN4llvm11raw_ostreamlsEc.exit

44:                                               ; preds = %_ZN4llvm11raw_ostreamlsEPKc.exit6
  %45 = getelementptr inbounds i8, ptr %39, i64 1
  store ptr %45, ptr %38, align 8
  store i8 10, ptr %39, align 1
  br label %_ZN4llvm11raw_ostreamlsEc.exit

_ZN4llvm11raw_ostreamlsEc.exit:                   ; preds = %42, %44
  ret void
}